; Function Attrs: mustprogress nofree norecurse nosync nounwind willreturn memory(read, inaccessiblemem: none) uwtable
define noundef i32 @_ZNK6icu_7721CollationRootElements5findPEj(ptr noundef nonnull readonly align 8 captures(none) dereferenceable(12) %0, i32 noundef %1) local_unnamed_addr #0 align 2 {
  %3 = load ptr, ptr %0, align 8, !tbaa !3
  %4 = getelementptr inbounds nuw i8, ptr %3, i64 8
  %5 = load i32, ptr %4, align 4, !tbaa !10
  %6 = getelementptr inbounds nuw i8, ptr %0, i64 8
  %7 = load i32, ptr %6, align 8, !tbaa !11
  %8 = add nsw i32 %7, -1
  %9 = add nsw i32 %5, 1
  %10 = icmp slt i32 %9, %8
  br i1 %10, label %.lr.ph111, label %._crit_edge62.thread86

.lr.ph111:                                        ; preds = %2, %._crit_edge62
  %.038110 = phi i32 [ %.033..038, %._crit_edge62 ], [ %8, %2 ]
  %.041109 = phi i32 [ %.041..033, %._crit_edge62 ], [ %5, %2 ]
  %11 = add nsw i32 %.038110, %.041109
  %12 = sdiv i32 %11, 2
  %13 = sext i32 %12 to i64
  %14 = getelementptr inbounds i32, ptr %3, i64 %13
  %15 = load i32, ptr %14, align 4, !tbaa !10
  %16 = and i32 %15, 128
  %.not = icmp eq i32 %16, 0
  br i1 %.not, label %._crit_edge62, label %.preheader52

.preheader52:                                     ; preds = %.lr.ph111
  %.02953 = add nsw i32 %12, 1
  %17 = icmp eq i32 %.02953, %.038110
  br i1 %17, label %.preheader, label %.lr.ph.preheader

.lr.ph.preheader:                                 ; preds = %.preheader52
  %18 = add nsw i64 %13, 1
  br label %.lr.ph

19:                                               ; preds = %.lr.ph
  %indvars.iv.next = add nsw i64 %indvars.iv, 1
  %20 = trunc nsw i64 %indvars.iv.next to i32
  %21 = icmp eq i32 %.038110, %20
  br i1 %21, label %.preheader, label %.lr.ph, !llvm.loop !12

.lr.ph:                                           ; preds = %.lr.ph.preheader, %19
  %indvars.iv = phi i64 [ %18, %.lr.ph.preheader ], [ %indvars.iv.next, %19 ]
  %22 = getelementptr inbounds i32, ptr %3, i64 %indvars.iv
  %23 = load i32, ptr %22, align 4, !tbaa !10
  %24 = and i32 %23, 128
  %25 = icmp eq i32 %24, 0
  br i1 %25, label %._crit_edge62.loopexit90, label %19, !llvm.loop !12

.preheader:                                       ; preds = %19, %.preheader52
  %.13059 = add nsw i32 %12, -1
  %26 = icmp eq i32 %.13059, %.041109
  br i1 %26, label %._crit_edge62.thread86, label %.lr.ph61.preheader

.lr.ph61.preheader:                               ; preds = %.preheader
  %narrow = add nsw i32 %12, -1
  %27 = sext i32 %narrow to i64
  br label %.lr.ph61

28:                                               ; preds = %.lr.ph61
  %indvars.iv.next71 = add nsw i64 %indvars.iv70, -1
  %29 = trunc nsw i64 %indvars.iv.next71 to i32
  %30 = icmp eq i32 %.041109, %29
  br i1 %30, label %._crit_edge62.thread86, label %.lr.ph61, !llvm.loop !14

.lr.ph61:                                         ; preds = %.lr.ph61.preheader, %28
  %indvars.iv70 = phi i64 [ %27, %.lr.ph61.preheader ], [ %indvars.iv.next71, %28 ]
  %31 = getelementptr inbounds i32, ptr %3, i64 %indvars.iv70
  %32 = load i32, ptr %31, align 4, !tbaa !10
  %33 = and i32 %32, 128
  %34 = icmp eq i32 %33, 0
  br i1 %34, label %._crit_edge62.loopexit, label %28, !llvm.loop !14

._crit_edge62.loopexit:                           ; preds = %.lr.ph61
  %35 = trunc nsw i64 %indvars.iv70 to i32
  br label %._crit_edge62

._crit_edge62.loopexit90:                         ; preds = %.lr.ph
  %36 = trunc nsw i64 %indvars.iv to i32
  br label %._crit_edge62

._crit_edge62:                                    ; preds = %._crit_edge62.loopexit90, %._crit_edge62.loopexit, %.lr.ph111
  %.033 = phi i32 [ %12, %.lr.ph111 ], [ %35, %._crit_edge62.loopexit ], [ %36, %._crit_edge62.loopexit90 ]
  %.031 = phi i32 [ %15, %.lr.ph111 ], [ %32, %._crit_edge62.loopexit ], [ %23, %._crit_edge62.loopexit90 ]
  %37 = and i32 %.031, -256
  %38 = icmp ult i32 %1, %37
  %.041..033 = select i1 %38, i32 %.041109, i32 %.033
  %.033..038 = select i1 %38, i32 %.033, i32 %.038110
  %39 = add nsw i32 %.041..033, 1
  %40 = icmp slt i32 %39, %.033..038
  br i1 %40, label %.lr.ph111, label %._crit_edge62.thread86

._crit_edge62.thread86:                           ; preds = %._crit_edge62, %.preheader, %28, %2
  %.041108 = phi i32 [ %5, %2 ], [ %.041109, %28 ], [ %.041109, %.preheader ], [ %.041..033, %._crit_edge62 ]
  ret i32 %.041108
}